target datalayout = "e-m:e-p270:32:32-p271:32:32-p272:64:64-i64:64-i128:128-f80:128-n8:16:32:64-S128"
target triple = "x86_64-pc-linux-gnu"

%struct._serv_port_custom_key = type { i16, i32 }
%struct.ws_services_entry_t = type { i16, ptr, ptr }
%struct.serv_port = type { ptr, ptr, ptr, ptr, ptr }

@addr_resolv_scope = internal global ptr null, align 8
@serv_port_hashtable = internal global ptr null, align 8
@new_resolved_objects = internal global i8 0, align 1
@serv_port_custom_hashtable = internal global ptr null, align 8

; Function Attrs: null_pointer_is_valid sspstrong uwtable
define internal ptr @add_service_name(i32 noundef %0, i32 noundef %1, ptr noundef %2) #3 {
  %4 = alloca ptr, align 8
  %5 = alloca i32, align 4
  %6 = alloca i32, align 4
  %7 = alloca ptr, align 8
  %8 = alloca ptr, align 8
  %9 = alloca i32, align 4
  store i32 %0, ptr %5, align 4
  store i32 %1, ptr %6, align 4
  store ptr %2, ptr %7, align 8
  call void @llvm.lifetime.start.p0(i64 8, ptr %8) #16
  %10 = load ptr, ptr @serv_port_hashtable, align 8
  %11 = load i32, ptr %6, align 4
  %12 = zext i32 %11 to i64
  %13 = inttoptr i64 %12 to ptr
  %14 = call ptr @wmem_map_lookup(ptr noundef %10, ptr noundef %13)
  store ptr %14, ptr %8, align 8
  %15 = load ptr, ptr %8, align 8
  %16 = icmp eq ptr %15, null
  br i1 %16, label %17, label %26

17:                                               ; preds = %3
  %18 = load ptr, ptr @addr_resolv_scope, align 8
  %19 = call noalias ptr @wmem_alloc0(ptr noundef %18, i64 noundef 40) #19
  store ptr %19, ptr %8, align 8
  %20 = load ptr, ptr @serv_port_hashtable, align 8
  %21 = load i32, ptr %6, align 4
  %22 = zext i32 %21 to i64
  %23 = inttoptr i64 %22 to ptr
  %24 = load ptr, ptr %8, align 8
  %25 = call ptr @wmem_map_insert(ptr noundef %20, ptr noundef %23, ptr noundef %24)
  br label %26

26:                                               ; preds = %17, %3
  %27 = load i32, ptr %5, align 4
  switch i32 %27, label %44 [
    i32 2, label %28
    i32 3, label %32
    i32 1, label %36
    i32 4, label %40
  ]

28:                                               ; preds = %26
  %29 = load ptr, ptr %7, align 8
  %30 = load ptr, ptr %8, align 8
  %31 = getelementptr inbounds nuw %struct.serv_port, ptr %30, i32 0, i32 1
  store ptr %29, ptr %31, align 8
  br label %46

32:                                               ; preds = %26
  %33 = load ptr, ptr %7, align 8
  %34 = load ptr, ptr %8, align 8
  %35 = getelementptr inbounds nuw %struct.serv_port, ptr %34, i32 0, i32 0
  store ptr %33, ptr %35, align 8
  br label %46

36:                                               ; preds = %26
  %37 = load ptr, ptr %7, align 8
  %38 = load ptr, ptr %8, align 8
  %39 = getelementptr inbounds nuw %struct.serv_port, ptr %38, i32 0, i32 2
  store ptr %37, ptr %39, align 8
  br label %46

40:                                               ; preds = %26
  %41 = load ptr, ptr %7, align 8
  %42 = load ptr, ptr %8, align 8
  %43 = getelementptr inbounds nuw %struct.serv_port, ptr %42, i32 0, i32 3
  store ptr %41, ptr %43, align 8
  br label %46

44:                                               ; preds = %26
  %45 = load ptr, ptr %8, align 8
  store ptr %45, ptr %4, align 8
  store i32 1, ptr %9, align 4
  br label %48

46:                                               ; preds = %40, %36, %32, %28
  store i8 1, ptr @new_resolved_objects, align 1
  %47 = load ptr, ptr %8, align 8
  store ptr %47, ptr %4, align 8
  store i32 1, ptr %9, align 4
  br label %48

48:                                               ; preds = %46, %44
  call void @llvm.lifetime.end.p0(i64 8, ptr %8) #16
  %49 = load ptr, ptr %4, align 8
  ret ptr %49
}

; Function Attrs: null_pointer_is_valid sspstrong uwtable
define internal ptr @_serv_name_lookup(i32 noundef %0, i32 noundef %1, ptr noundef %2) #3 {
  %4 = alloca ptr, align 8
  %5 = alloca i32, align 4
  %6 = alloca i32, align 4
  %7 = alloca ptr, align 8
  %8 = alloca ptr, align 8
  %9 = alloca ptr, align 8
  %10 = alloca i32, align 4
  %11 = alloca ptr, align 8
  %12 = alloca %struct._serv_port_custom_key, align 4
  %13 = alloca i8, align 1
  %14 = alloca i32, align 4
  store i32 %0, ptr %5, align 4
  store i32 %1, ptr %6, align 4
  store ptr %2, ptr %7, align 8
  call void @llvm.lifetime.start.p0(i64 8, ptr %8) #16
  call void @llvm.lifetime.start.p0(i64 8, ptr %9) #16
  store ptr null, ptr %9, align 8
  call void @llvm.lifetime.start.p0(i64 4, ptr %10) #16
  call void @llvm.lifetime.start.p0(i64 8, ptr %11) #16
  %15 = load ptr, ptr @serv_port_hashtable, align 8
  %16 = load i32, ptr %6, align 4
  %17 = zext i32 %16 to i64
  %18 = inttoptr i64 %17 to ptr
  %19 = call ptr @wmem_map_lookup(ptr noundef %15, ptr noundef %18)
  store ptr %19, ptr %8, align 8
  %20 = load ptr, ptr %8, align 8
  %21 = icmp eq ptr %20, null
  br i1 %21, label %22, label %31

22:                                               ; preds = %3
  call void @llvm.lifetime.start.p0(i64 8, ptr %12) #16
  %23 = getelementptr inbounds nuw %struct._serv_port_custom_key, ptr %12, i32 0, i32 0
  %24 = load i32, ptr %6, align 4
  %25 = trunc i32 %24 to i16
  store i16 %25, ptr %23, align 4
  %26 = getelementptr i8, ptr %12, i64 2
  call void @llvm.memset.p0.i64(ptr align 2 %26, i8 0, i64 2, i1 false)
  %27 = getelementptr inbounds nuw %struct._serv_port_custom_key, ptr %12, i32 0, i32 1
  %28 = load i32, ptr %5, align 4
  store i32 %28, ptr %27, align 4
  %29 = load ptr, ptr @serv_port_custom_hashtable, align 8
  %30 = call ptr @wmem_map_lookup(ptr noundef %29, ptr noundef %12)
  store ptr %30, ptr %9, align 8
  call void @llvm.lifetime.end.p0(i64 8, ptr %12) #16
  br label %31

31:                                               ; preds = %22, %3
  %32 = load ptr, ptr %9, align 8
  %33 = icmp eq ptr %32, null
  br i1 %33, label %34, label %57

34:                                               ; preds = %31
  call void @llvm.lifetime.start.p0(i64 1, ptr %13) #16
  store i8 1, ptr %13, align 1
  %35 = load i32, ptr %5, align 4
  switch i32 %35, label %40 [
    i32 2, label %36
    i32 3, label %37
    i32 1, label %38
    i32 4, label %39
  ]

36:                                               ; preds = %34
  store i32 0, ptr %10, align 4
  br label %41

37:                                               ; preds = %34
  store i32 1, ptr %10, align 4
  br label %41

38:                                               ; preds = %34
  store i32 2, ptr %10, align 4
  br label %41

39:                                               ; preds = %34
  store i32 3, ptr %10, align 4
  br label %41

40:                                               ; preds = %34
  store i8 0, ptr %13, align 1
  br label %41

41:                                               ; preds = %40, %39, %38, %37, %36
  %42 = load i8, ptr %13, align 1, !range !8, !noundef !9
  %43 = trunc i8 %42 to i1
  br i1 %43, label %44, label %56

44:                                               ; preds = %41
  %45 = load i32, ptr %6, align 4
  %46 = trunc i32 %45 to i16
  %47 = load i32, ptr %10, align 4
  %48 = call ptr @global_services_lookup(i16 noundef zeroext %46, i32 noundef %47)
  store ptr %48, ptr %11, align 8
  %49 = load ptr, ptr %11, align 8
  %50 = icmp ne ptr %49, null
  br i1 %50, label %51, label %55

51:                                               ; preds = %44
  %52 = load ptr, ptr %11, align 8
  %53 = getelementptr inbounds nuw %struct.ws_services_entry_t, ptr %52, i32 0, i32 1
  %54 = load ptr, ptr %53, align 8
  store ptr %54, ptr %9, align 8
  br label %55

55:                                               ; preds = %51, %44
  br label %56

56:                                               ; preds = %55, %41
  call void @llvm.lifetime.end.p0(i64 1, ptr %13) #16
  br label %57

57:                                               ; preds = %56, %31
  %58 = load ptr, ptr %9, align 8
  %59 = icmp ne ptr %58, null
  br i1 %59, label %60, label %65

60:                                               ; preds = %57
  %61 = load i32, ptr %5, align 4
  %62 = load i32, ptr %6, align 4
  %63 = load ptr, ptr %9, align 8
  %64 = call ptr @add_service_name(i32 noundef %61, i32 noundef %62, ptr noundef %63)
  store ptr %64, ptr %8, align 8
  br label %65

65:                                               ; preds = %60, %57
  %66 = load ptr, ptr %7, align 8
  %67 = icmp ne ptr %66, null
  br i1 %67, label %68, label %71

68:                                               ; preds = %65
  %69 = load ptr, ptr %8, align 8
  %70 = load ptr, ptr %7, align 8
  store ptr %69, ptr %70, align 8
  br label %71

71:                                               ; preds = %68, %65
  %72 = load ptr, ptr %8, align 8
  %73 = icmp eq ptr %72, null
  br i1 %73, label %74, label %75

74:                                               ; preds = %71
  store ptr null, ptr %4, align 8
  store i32 1, ptr %14, align 4
  br label %95

75:                                               ; preds = %71
  %76 = load i32, ptr %5, align 4
  switch i32 %76, label %93 [
    i32 3, label %77
    i32 2, label %81
    i32 1, label %85
    i32 4, label %89
  ]

77:                                               ; preds = %75
  %78 = load ptr, ptr %8, align 8
  %79 = getelementptr inbounds nuw %struct.serv_port, ptr %78, i32 0, i32 0
  %80 = load ptr, ptr %79, align 8
  store ptr %80, ptr %4, align 8
  store i32 1, ptr %14, align 4
  br label %95

81:                                               ; preds = %75
  %82 = load ptr, ptr %8, align 8
  %83 = getelementptr inbounds nuw %struct.serv_port, ptr %82, i32 0, i32 1
  %84 = load ptr, ptr %83, align 8
  store ptr %84, ptr %4, align 8
  store i32 1, ptr %14, align 4
  br label %95

85:                                               ; preds = %75
  %86 = load ptr, ptr %8, align 8
  %87 = getelementptr inbounds nuw %struct.serv_port, ptr %86, i32 0, i32 2
  %88 = load ptr, ptr %87, align 8
  store ptr %88, ptr %4, align 8
  store i32 1, ptr %14, align 4
  br label %95

89:                                               ; preds = %75
  %90 = load ptr, ptr %8, align 8
  %91 = getelementptr inbounds nuw %struct.serv_port, ptr %90, i32 0, i32 3
  %92 = load ptr, ptr %91, align 8
  store ptr %92, ptr %4, align 8
  store i32 1, ptr %14, align 4
  br label %95

93:                                               ; preds = %75
  br label %94

94:                                               ; preds = %93
  store ptr null, ptr %4, align 8
  store i32 1, ptr %14, align 4
  br label %95

95:                                               ; preds = %94, %89, %85, %81, %77, %74
  call void @llvm.lifetime.end.p0(i64 8, ptr %11) #16
  call void @llvm.lifetime.end.p0(i64 4, ptr %10) #16
  call void @llvm.lifetime.end.p0(i64 8, ptr %9) #16
  call void @llvm.lifetime.end.p0(i64 8, ptr %8) #16
  %96 = load ptr, ptr %4, align 8
  ret ptr %96
}