; Function Attrs: null_pointer_is_valid sspstrong uwtable
define internal fastcc ptr @_serv_name_lookup(i32 noundef %0, i32 noundef %1, ptr noundef writeonly captures(address_is_null) %2) unnamed_addr #3 {
  %4 = alloca %struct._serv_port_custom_key, align 4
  %5 = load ptr, ptr @serv_port_hashtable, align 8
  %6 = zext i32 %1 to i64
  %7 = inttoptr i64 %6 to ptr
  %8 = tail call ptr @wmem_map_lookup(ptr noundef %5, ptr noundef %7)
  %9 = icmp eq ptr %8, null
  br i1 %9, label %10, label %.thread

10:                                               ; preds = %3
  call void @llvm.lifetime.start.p0(i64 8, ptr nonnull %4) #24
  %11 = trunc i32 %1 to i16
  store i16 %11, ptr %4, align 4
  %12 = getelementptr inbounds nuw i8, ptr %4, i64 2
  store i16 0, ptr %12, align 2
  %13 = getelementptr inbounds nuw i8, ptr %4, i64 4
  store i32 %0, ptr %13, align 4
  %14 = load ptr, ptr @serv_port_custom_hashtable, align 8
  %15 = call ptr @wmem_map_lookup(ptr noundef %14, ptr noundef nonnull %4)
  call void @llvm.lifetime.end.p0(i64 8, ptr nonnull %4) #24
  %16 = icmp eq ptr %15, null
  br i1 %16, label %.thread, label %.thread41

.thread:                                          ; preds = %3, %10
  %switch.tableidx = add i32 %0, -1
  %17 = icmp ult i32 %switch.tableidx, 4
  br i1 %17, label %switch.lookup, label %add_service_name.exit

switch.lookup:                                    ; preds = %.thread
  %18 = zext nneg i32 %switch.tableidx to i64
  %switch.gep = getelementptr inbounds nuw [4 x i32], ptr @switch.table._serv_name_lookup, i64 0, i64 %18
  %switch.load = load i32, ptr %switch.gep, align 4
  %19 = trunc i32 %1 to i16
  %20 = call ptr @global_services_lookup(i16 noundef zeroext %19, i32 noundef %switch.load)
  %.not = icmp eq ptr %20, null
  br i1 %.not, label %add_service_name.exit, label %21

21:                                               ; preds = %switch.lookup
  %22 = getelementptr inbounds nuw i8, ptr %20, i64 8
  %23 = load ptr, ptr %22, align 8
  %.not30 = icmp eq ptr %23, null
  br i1 %.not30, label %add_service_name.exit, label %.thread41

.thread41:                                        ; preds = %10, %21
  %.144 = phi ptr [ %23, %21 ], [ %15, %10 ]
  %24 = load ptr, ptr @serv_port_hashtable, align 8
  %25 = call ptr @wmem_map_lookup(ptr noundef %24, ptr noundef %7)
  %26 = icmp eq ptr %25, null
  br i1 %26, label %27, label %32

27:                                               ; preds = %.thread41
  %28 = load ptr, ptr @addr_resolv_scope, align 8
  %29 = call noalias dereferenceable_or_null(40) ptr @wmem_alloc0(ptr noundef %28, i64 noundef 40) #26
  %30 = load ptr, ptr @serv_port_hashtable, align 8
  %31 = call ptr @wmem_map_insert(ptr noundef %30, ptr noundef %7, ptr noundef %29)
  br label %32

32:                                               ; preds = %27, %.thread41
  %.0.i = phi ptr [ %29, %27 ], [ %25, %.thread41 ]
  switch i32 %0, label %add_service_name.exit [
    i32 2, label %33
    i32 3, label %35
    i32 1, label %36
    i32 4, label %38
  ]

33:                                               ; preds = %32
  %34 = getelementptr inbounds nuw i8, ptr %.0.i, i64 8
  store ptr %.144, ptr %34, align 8
  br label %40

35:                                               ; preds = %32
  store ptr %.144, ptr %.0.i, align 8
  br label %40

36:                                               ; preds = %32
  %37 = getelementptr inbounds nuw i8, ptr %.0.i, i64 16
  store ptr %.144, ptr %37, align 8
  br label %40

38:                                               ; preds = %32
  %39 = getelementptr inbounds nuw i8, ptr %.0.i, i64 24
  store ptr %.144, ptr %39, align 8
  br label %40

40:                                               ; preds = %38, %36, %35, %33
  store i1 true, ptr @new_resolved_objects, align 1
  br label %add_service_name.exit

add_service_name.exit:                            ; preds = %.thread, %switch.lookup, %40, %32, %21
  %.027 = phi ptr [ %8, %21 ], [ %.0.i, %32 ], [ %.0.i, %40 ], [ %8, %switch.lookup ], [ %8, %.thread ]
  %.not31 = icmp eq ptr %2, null
  br i1 %.not31, label %42, label %41

41:                                               ; preds = %add_service_name.exit
  store ptr %.027, ptr %2, align 8
  br label %42

42:                                               ; preds = %41, %add_service_name.exit
  %43 = icmp eq ptr %.027, null
  br i1 %43, label %56, label %44

44:                                               ; preds = %42
  switch i32 %0, label %56 [
    i32 3, label %45
    i32 2, label %47
    i32 1, label %50
    i32 4, label %53
  ]

45:                                               ; preds = %44
  %46 = load ptr, ptr %.027, align 8
  br label %56

47:                                               ; preds = %44
  %48 = getelementptr inbounds nuw i8, ptr %.027, i64 8
  %49 = load ptr, ptr %48, align 8
  br label %56

50:                                               ; preds = %44
  %51 = getelementptr inbounds nuw i8, ptr %.027, i64 16
  %52 = load ptr, ptr %51, align 8
  br label %56

53:                                               ; preds = %44
  %54 = getelementptr inbounds nuw i8, ptr %.027, i64 24
  %55 = load ptr, ptr %54, align 8
  br label %56

56:                                               ; preds = %44, %42, %53, %50, %47, %45
  %.024 = phi ptr [ %55, %53 ], [ %52, %50 ], [ %49, %47 ], [ %46, %45 ], [ null, %42 ], [ null, %44 ]
  ret ptr %.024
}